target datalayout = "e-m:e-p270:32:32-p271:32:32-p272:64:64-i64:64-i128:128-f80:128-n8:16:32:64-S128"
target triple = "x86_64-unknown-linux-gnu"

%struct.BlockCopyState = type { ptr, ptr, i64, i64, i64, i32, %struct.CoMutex, i64, i32, %struct.BlockReqList, %struct.anon.0, i8, ptr, ptr, ptr, %struct.RateLimit }
%struct.CoMutex = type { i32, ptr, %struct.anon, %struct.anon, i32, i32, ptr }
%struct.anon = type { ptr }
%struct.BlockReqList = type { ptr }
%struct.anon.0 = type { ptr }
%struct.RateLimit = type { %struct.QemuMutex, i64, i64, i64, i64, i64 }
%struct.QemuMutex = type { %union.pthread_mutex_t, i8 }
%union.pthread_mutex_t = type { %struct.__pthread_mutex_s }
%struct.__pthread_mutex_s = type { i32, i32, i32, i32, i32, i16, i16, %struct.__pthread_internal_list }
%struct.__pthread_internal_list = type { ptr, ptr }

; Function Attrs: nounwind sspstrong uwtable
define internal void @ratelimit_destroy(ptr noundef %limit) #0 {
entry:
  %limit.addr = alloca ptr, align 8
  store ptr %limit, ptr %limit.addr, align 8
  %0 = load ptr, ptr %limit.addr, align 8
  %lock = getelementptr inbounds %struct.RateLimit, ptr %0, i32 0, i32 0
  call void @qemu_mutex_destroy(ptr noundef %lock)
  ret void
}

; Function Attrs: nounwind sspstrong uwtable
define dso_local void @block_copy_state_free(ptr noundef %s) #0 {
entry:
  %s.addr = alloca ptr, align 8
  store ptr %s, ptr %s.addr, align 8
  %0 = load ptr, ptr %s.addr, align 8
  %tobool = icmp ne ptr %0, null
  br i1 %tobool, label %if.end, label %if.then

if.then:                                          ; preds = %entry
  br label %return

if.end:                                           ; preds = %entry
  %1 = load ptr, ptr %s.addr, align 8
  %rate_limit = getelementptr inbounds %struct.BlockCopyState, ptr %1, i32 0, i32 15
  call void @ratelimit_destroy(ptr noundef %rate_limit)
  %2 = load ptr, ptr %s.addr, align 8
  %copy_bitmap = getelementptr inbounds %struct.BlockCopyState, ptr %2, i32 0, i32 12
  %3 = load ptr, ptr %copy_bitmap, align 8
  call void @bdrv_release_dirty_bitmap(ptr noundef %3)
  %4 = load ptr, ptr %s.addr, align 8
  %mem = getelementptr inbounds %struct.BlockCopyState, ptr %4, i32 0, i32 14
  %5 = load ptr, ptr %mem, align 8
  call void @shres_destroy(ptr noundef %5)
  %6 = load ptr, ptr %s.addr, align 8
  call void @g_free(ptr noundef %6)
  br label %return

return:                                           ; preds = %if.end, %if.then
  ret void
}