; Function Attrs: nounwind sspstrong uwtable
define dso_local void @block_copy_state_free(ptr noundef %s) local_unnamed_addr #0 {
entry:
  %tobool.not = icmp eq ptr %s, null
  br i1 %tobool.not, label %return, label %if.end

if.end:                                           ; preds = %entry
  %rate_limit = getelementptr inbounds nuw i8, ptr %s, i64 160
  tail call void @qemu_mutex_destroy(ptr noundef nonnull %rate_limit) #14
  %copy_bitmap = getelementptr inbounds nuw i8, ptr %s, i64 136
  %0 = load ptr, ptr %copy_bitmap, align 8
  tail call void @bdrv_release_dirty_bitmap(ptr noundef %0) #14
  %mem = getelementptr inbounds nuw i8, ptr %s, i64 152
  %1 = load ptr, ptr %mem, align 8
  tail call void @shres_destroy(ptr noundef %1) #14
  tail call void @g_free(ptr noundef nonnull %s) #14
  br label %return

return:                                           ; preds = %entry, %if.end
  ret void
}